###############################################################################
#                                                                             #
# IAR C/C++ Compiler V8.10.1.10194/W32 for 8051         18/Jul/2018  10:40:26 #
# Copyright 2004-2011 IAR Systems AB.                                         #
#                                                                             #
#    Core               =  plain                                              #
#    Code model         =  banked                                             #
#    Data model         =  large                                              #
#    Calling convention =  xdata reentrant                                    #
#    Constant location  =  data_rom                                           #
#    Dptr setup         =  1,16                                               #
#    Source file        =  C:\Documents and Settings\new\桌面\复件            #
#                          下位机\协调器\Projects\zstack\Samples\SampleApp\So #
#                          urce\SampleApp.c                                   #
#    Command line       =  -f "C:\Documents and Settings\new\桌面\复件        #
#                          下位机\协调器\Projects\zstack\Samples\SampleApp\CC #
#                          2530DB\..\..\..\Tools\CC2530DB\f8wRouter.cfg"      #
#                          (-DCPU32MHZ -DROOT=__near_func                     #
#                          -DMAC_CFG_APP_PENDING_QUEUE=TRUE                   #
#                          -DMAC_CFG_TX_DATA_MAX=5 -DMAC_CFG_TX_MAX=8         #
#                          -DMAC_CFG_RX_MAX=5 -DRTR_NWK) -f "C:\Documents     #
#                          and Settings\new\桌面\复件                         #
#                          下位机\协调器\Projects\zstack\Samples\SampleApp\CC #
#                          2530DB\..\..\..\Tools\CC2530DB\f8wConfig.cfg"      #
#                          (-DZIGBEEPRO -DSECURE=0 -DZG_SECURE_DYNAMIC=0      #
#                          -DREFLECTOR -DDEFAULT_CHANLIST=0x00004000          #
#                          -DZDAPP_CONFIG_PAN_ID=0xFF04                       #
#                          -DNWK_START_DELAY=100 -DEXTENDED_JOINING_RANDOM_MA #
#                          SK=0x007F -DBEACON_REQUEST_DELAY=100               #
#                          -DBEACON_REQ_DELAY_MASK=0x00FF                     #
#                          -DLINK_STATUS_JITTER_MASK=0x007F                   #
#                          -DROUTE_EXPIRY_TIME=30 -DAPSC_ACK_WAIT_DURATION_PO #
#                          LLED=3000 -DNWK_INDIRECT_MSG_TIMEOUT=7             #
#                          -DMAX_RREQ_ENTRIES=8 -DAPSC_MAX_FRAME_RETRIES=3    #
#                          -DNWK_MAX_DATA_RETRIES=2                           #
#                          -DMAX_POLL_FAILURE_RETRIES=2 -DMAX_BCAST=9         #
#                          -DAPS_MAX_GROUPS=16 -DMAX_RTG_ENTRIES=40           #
#                          -DNWK_MAX_BINDING_ENTRIES=4                        #
#                          -DMAX_BINDING_CLUSTER_IDS=4 "-DDEFAULT_KEY={0x01,  #
#                          0x03, 0x05, 0x07, 0x09, 0x0B, 0x0D, 0x0F, 0x00,    #
#                          0x02, 0x04, 0x06, 0x08, 0x0A, 0x0C, 0x0D}"         #
#                          -DMAC_MAX_FRAME_SIZE=116                           #
#                          -DZDNWKMGR_MIN_TRANSMISSIONS=20 "-DCONST=const     #
#                          __code" -DGENERIC=__generic                        #
#                          -DRFD_RCVC_ALWAYS_ON=FALSE -DPOLL_RATE=1000        #
#                          -DQUEUED_POLL_RATE=100 -DRESPONSE_POLL_RATE=100)   #
#                          -DREJOIN_POLL_RATE=440 "C:\Documents and           #
#                          Settings\new\桌面\复件 下位机\协调器\Projects\zsta #
#                          ck\Samples\SampleApp\Source\SampleApp.c" -D        #
#                          ZTOOL_P1 -D MT_TASK -D MT_SYS_FUNC -D MT_ZDO_FUNC  #
#                          -D LCD_SUPPORTED=DEBUG -lC "C:\Documents and       #
#                          Settings\new\桌面\复件 下位机\协调器\Projects\zsta #
#                          ck\Samples\SampleApp\CC2530DB\RouterEB\List\" -lA  #
#                          "C:\Documents and Settings\new\桌面\复件           #
#                          下位机\协调器\Projects\zstack\Samples\SampleApp\CC #
#                          2530DB\RouterEB\List\" --diag_suppress             #
#                          Pe001,Pa010 -o "C:\Documents and                   #
#                          Settings\new\桌面\复件 下位机\协调器\Projects\zsta #
#                          ck\Samples\SampleApp\CC2530DB\RouterEB\Obj\" -e    #
#                          --no_code_motion --debug --core=plain --dptr=16,1  #
#                          --data_model=large --code_model=banked             #
#                          --calling_convention=xdata_reentrant               #
#                          --place_constants=data_rom --nr_virtual_regs 16    #
#                          -I "C:\Documents and Settings\new\桌面\复件        #
#                          下位机\协调器\Projects\zstack\Samples\SampleApp\CC #
#                          2530DB\" -I "C:\Documents and                      #
#                          Settings\new\桌面\复件 下位机\协调器\Projects\zsta #
#                          ck\Samples\SampleApp\CC2530DB\..\Source\" -I       #
#                          "C:\Documents and Settings\new\桌面\复件           #
#                          下位机\协调器\Projects\zstack\Samples\SampleApp\CC #
#                          2530DB\..\..\..\ZMain\TI2530DB\" -I "C:\Documents  #
#                          and Settings\new\桌面\复件                         #
#                          下位机\协调器\Projects\zstack\Samples\SampleApp\CC #
#                          2530DB\..\..\..\..\..\Components\hal\include\" -I  #
#                          "C:\Documents and Settings\new\桌面\复件           #
#                          下位机\协调器\Projects\zstack\Samples\SampleApp\CC #
#                          2530DB\..\..\..\..\..\Components\hal\target\CC2530 #
#                          EB\" -I "C:\Documents and Settings\new\桌面\复件   #
#                          下位机\协调器\Projects\zstack\Samples\SampleApp\CC #
#                          2530DB\..\..\..\..\..\Components\mac\include\" -I  #
#                          "C:\Documents and Settings\new\桌面\复件           #
#                          下位机\协调器\Projects\zstack\Samples\SampleApp\CC #
#                          2530DB\..\..\..\..\..\Components\mac\high_level\"  #
#                          -I "C:\Documents and Settings\new\桌面\复件        #
#                          下位机\协调器\Projects\zstack\Samples\SampleApp\CC #
#                          2530DB\..\..\..\..\..\Components\mac\low_level\srf #
#                          04\" -I "C:\Documents and Settings\new\桌面\复件   #
#                          下位机\协调器\Projects\zstack\Samples\SampleApp\CC #
#                          2530DB\..\..\..\..\..\Components\mac\low_level\srf #
#                          04\single_chip\" -I "C:\Documents and              #
#                          Settings\new\桌面\复件 下位机\协调器\Projects\zsta #
#                          ck\Samples\SampleApp\CC2530DB\..\..\..\..\..\Compo #
#                          nents\mt\" -I "C:\Documents and                    #
#                          Settings\new\桌面\复件 下位机\协调器\Projects\zsta #
#                          ck\Samples\SampleApp\CC2530DB\..\..\..\..\..\Compo #
#                          nents\osal\include\" -I "C:\Documents and          #
#                          Settings\new\桌面\复件 下位机\协调器\Projects\zsta #
#                          ck\Samples\SampleApp\CC2530DB\..\..\..\..\..\Compo #
#                          nents\services\saddr\" -I "C:\Documents and        #
#                          Settings\new\桌面\复件 下位机\协调器\Projects\zsta #
#                          ck\Samples\SampleApp\CC2530DB\..\..\..\..\..\Compo #
#                          nents\services\sdata\" -I "C:\Documents and        #
#                          Settings\new\桌面\复件 下位机\协调器\Projects\zsta #
#                          ck\Samples\SampleApp\CC2530DB\..\..\..\..\..\Compo #
#                          nents\stack\af\" -I "C:\Documents and              #
#                          Settings\new\桌面\复件 下位机\协调器\Projects\zsta #
#                          ck\Samples\SampleApp\CC2530DB\..\..\..\..\..\Compo #
#                          nents\stack\nwk\" -I "C:\Documents and             #
#                          Settings\new\桌面\复件 下位机\协调器\Projects\zsta #
#                          ck\Samples\SampleApp\CC2530DB\..\..\..\..\..\Compo #
#                          nents\stack\sapi\" -I "C:\Documents and            #
#                          Settings\new\桌面\复件 下位机\协调器\Projects\zsta #
#                          ck\Samples\SampleApp\CC2530DB\..\..\..\..\..\Compo #
#                          nents\stack\sec\" -I "C:\Documents and             #
#                          Settings\new\桌面\复件 下位机\协调器\Projects\zsta #
#                          ck\Samples\SampleApp\CC2530DB\..\..\..\..\..\Compo #
#                          nents\stack\sys\" -I "C:\Documents and             #
#                          Settings\new\桌面\复件 下位机\协调器\Projects\zsta #
#                          ck\Samples\SampleApp\CC2530DB\..\..\..\..\..\Compo #
#                          nents\stack\zdo\" -I "C:\Documents and             #
#                          Settings\new\桌面\复件 下位机\协调器\Projects\zsta #
#                          ck\Samples\SampleApp\CC2530DB\..\..\..\..\..\Compo #
#                          nents\zmac\" -I "C:\Documents and                  #
#                          Settings\new\桌面\复件 下位机\协调器\Projects\zsta #
#                          ck\Samples\SampleApp\CC2530DB\..\..\..\..\..\Compo #
#                          nents\zmac\f8w\" -Ohz --require_prototypes         #
#    List file          =  C:\Documents and Settings\new\桌面\复件            #
#                          下位机\协调器\Projects\zstack\Samples\SampleApp\CC #
#                          2530DB\RouterEB\List\SampleApp.lst                 #
#    Object file        =  C:\Documents and Settings\new\桌面\复件            #
#                          下位机\协调器\Projects\zstack\Samples\SampleApp\CC #
#                          2530DB\RouterEB\Obj\SampleApp.r51                  #
#                                                                             #
#                                                                             #
###############################################################################

C:\Documents and Settings\new\桌面\复件 下位机\协调器\Projects\zstack\Samples\SampleApp\Source\SampleApp.c
      1          /**************************************************************************************************
      2            Filename:       SampleApp.c
      3            Revised:        $Date: 2009-03-18 15:56:27 -0700 (Wed, 18 Mar 2009) $
      4            Revision:       $Revision: 19453 $
      5          
      6            Description:    Sample Application (no Profile).
      7          
      8          
      9            Copyright 2007 Texas Instruments Incorporated. All rights reserved.
     10          
     11            IMPORTANT: Your use of this Software is limited to those specific rights
     12            granted under the terms of a software license agreement between the user
     13            who downloaded the software, his/her employer (which must be your employer)
     14            and Texas Instruments Incorporated (the "License").  You may not use this
     15            Software unless you agree to abide by the terms of the License. The License
     16            limits your use, and you acknowledge, that the Software may not be modified,
     17            copied or distributed unless embedded on a Texas Instruments microcontroller
     18            or used solely and exclusively in conjunction with a Texas Instruments radio
     19            frequency transceiver, which is integrated into your product.  Other than for
     20            the foregoing purpose, you may not use, reproduce, copy, prepare derivative
     21            works of, modify, distribute, perform, display or sell this Software and/or
     22            its documentation for any purpose.
     23          
     24            YOU FURTHER ACKNOWLEDGE AND AGREE THAT THE SOFTWARE AND DOCUMENTATION ARE
     25            PROVIDED AS IS?WITHOUT WARRANTY OF ANY KIND, EITHER EXPRESS OR IMPLIED,
     26            INCLUDING WITHOUT LIMITATION, ANY WARRANTY OF MERCHANTABILITY, TITLE,
     27            NON-INFRINGEMENT AND FITNESS FOR A PARTICULAR PURPOSE. IN NO EVENT SHALL
     28            TEXAS INSTRUMENTS OR ITS LICENSORS BE LIABLE OR OBLIGATED UNDER CONTRACT,
     29            NEGLIGENCE, STRICT LIABILITY, CONTRIBUTION, BREACH OF WARRANTY, OR OTHER
     30            LEGAL EQUITABLE THEORY ANY DIRECT OR INDIRECT DAMAGES OR EXPENSES
     31            INCLUDING BUT NOT LIMITED TO ANY INCIDENTAL, SPECIAL, INDIRECT, PUNITIVE
     32            OR CONSEQUENTIAL DAMAGES, LOST PROFITS OR LOST DATA, COST OF PROCUREMENT
     33            OF SUBSTITUTE GOODS, TECHNOLOGY, SERVICES, OR ANY CLAIMS BY THIRD PARTIES
     34            (INCLUDING BUT NOT LIMITED TO ANY DEFENSE THEREOF), OR OTHER SIMILAR COSTS.
     35          
     36            Should you have any questions regarding your right to use this Software,
     37            contact Texas Instruments Incorporated at www.TI.com.
     38          **************************************************************************************************/
     39          
     40          /*********************************************************************
     41            This application isn't intended to do anything useful, it is
     42            intended to be a simple example of an application's structure.
     43          
     44            This application sends it's messages either as broadcast or
     45            broadcast filtered group messages.  The other (more normal)
     46            message addressing is unicast.  Most of the other sample
     47            applications are written to support the unicast message model.
     48          
     49            Key control:
     50              SW1:  Sends a flash command to all devices in Group 1.
     51              SW2:  Adds/Removes (toggles) this device in and out
     52                    of Group 1.  This will enable and disable the
     53                    reception of the flash command.
     54          *********************************************************************/
     55          
     56          /*********************************************************************
     57           * INCLUDES
     58           */
     59          #include "OSAL.h"
     60          #include "ZGlobals.h"
     61          #include "AF.h"
     62          #include "aps_groups.h"
     63          #include "ZDApp.h"
     64          #include "ioCC2530.h"

   \                                 In  segment SFR_AN, at 0x8f
   \   unsigned char volatile __sfr P0INP
   \                     P0INP:
   \   000000                DS 1

   \                                 In  segment SFR_AN, at 0x90
   \   union <unnamed> volatile __sfr _A_P1
   \                     _A_P1:
   \   000000                DS 1

   \                                 In  segment SFR_AN, at 0xa0
   \   union <unnamed> volatile __sfr _A_P2
   \                     _A_P2:
   \   000000                DS 1

   \                                 In  segment SFR_AN, at 0xf3
   \   unsigned char volatile __sfr P0SEL
   \                     P0SEL:
   \   000000                DS 1

   \                                 In  segment SFR_AN, at 0xf5
   \   unsigned char volatile __sfr P2SEL
   \                     P2SEL:
   \   000000                DS 1

   \                                 In  segment SFR_AN, at 0xf6
   \   unsigned char volatile __sfr P1INP
   \                     P1INP:
   \   000000                DS 1

   \                                 In  segment SFR_AN, at 0xf7
   \   unsigned char volatile __sfr P2INP
   \                     P2INP:
   \   000000                DS 1

   \                                 In  segment SFR_AN, at 0xfd
   \   unsigned char volatile __sfr P0DIR
   \                     P0DIR:
   \   000000                DS 1

   \                                 In  segment SFR_AN, at 0xfe
   \   unsigned char volatile __sfr P1DIR
   \                     P1DIR:
   \   000000                DS 1

   \                                 In  segment SFR_AN, at 0xff
   \   unsigned char volatile __sfr P2DIR
   \                     P2DIR:
   \   000000                DS 1
     65          
     66          #include "SampleApp.h"
     67          #include "SampleAppHw.h"
     68          
     69          #include "OnBoard.h"
     70          
     71          /* HAL */
     72          #include "hal_lcd.h"
     73          #include "hal_led.h"
     74          #include "hal_key.h"
     75          
     76          #include  "MT_UART.h" //此处用于串口
     77          #include  "DHT11.h"   //温湿度专用
     78          
     79          //光敏电阻定义
     80          #define LIGHT P2_0    //光敏为P2.0口控制
     81          #define LED1  P1_0    //定义P1.0口为LED1控制端
     82          #define KEY1  P0_0    //KEY1为P0.0口控制
     83          
     84          
     85          //uint8 L=0;
     86          
     87          
     88          /*********************************************************************
     89           * MACROS
     90           */
     91          
     92          /*********************************************************************
     93           * CONSTANTS
     94           */
     95          
     96          /*********************************************************************
     97           * TYPEDEFS
     98           */
     99          
    100          /*********************************************************************
    101           * GLOBAL VARIABLES
    102           */
    103          
    104          // This list should be filled with Application specific Cluster IDs.

   \                                 In  segment XDATA_ROM_C, align 1
    105          const cId_t SampleApp_ClusterList[SAMPLEAPP_MAX_CLUSTERS] =
   \                     SampleApp_ClusterList:
   \   000000   0100         DW 1
   \   000002   0200         DW 2
   \   000004   0000         DW 0
    106          {
    107            SAMPLEAPP_PERIODIC_CLUSTERID,
    108            SAMPLEAPP_FLASH_CLUSTERID
    109          };
    110          

   \                                 In  segment XDATA_ROM_C, align 1
    111          const SimpleDescriptionFormat_t SampleApp_SimpleDesc =
   \                     SampleApp_SimpleDesc:
   \   000000   14           DB 20
   \   000001   080F         DW 3848
   \   000003   0100         DW 1
   \   000005   00           DB 0
   \   000006   03           DB 3
   \   000007   ....         DW SampleApp_ClusterList
   \   000009   03           DB 3
   \   00000A   ....         DW SampleApp_ClusterList
    112          {
    113            SAMPLEAPP_ENDPOINT,              //  int Endpoint;
    114            SAMPLEAPP_PROFID,                //  uint16 AppProfId[2];
    115            SAMPLEAPP_DEVICEID,              //  uint16 AppDeviceId[2];
    116            SAMPLEAPP_DEVICE_VERSION,        //  int   AppDevVer:4;
    117            SAMPLEAPP_FLAGS,                 //  int   AppFlags:4;
    118            SAMPLEAPP_MAX_CLUSTERS,          //  uint8  AppNumInClusters;
    119            (cId_t *)SampleApp_ClusterList,  //  uint8 *pAppInClusterList;
    120            SAMPLEAPP_MAX_CLUSTERS,          //  uint8  AppNumInClusters;
    121            (cId_t *)SampleApp_ClusterList   //  uint8 *pAppInClusterList;
    122          };
    123          
    124          // This is the Endpoint/Interface description.  It is defined here, but
    125          // filled-in in SampleApp_Init().  Another way to go would be to fill
    126          // in the structure here and make it a "const" (in code space).  The
    127          // way it's defined in this sample app it is define in RAM.

   \                                 In  segment XDATA_Z, align 1, keep-with-next
    128          endPointDesc_t SampleApp_epDesc;
   \                     SampleApp_epDesc:
   \   000000                DS 6
   \   000006                REQUIRE __INIT_XDATA_Z
    129          
    130          /*********************************************************************
    131           * EXTERNAL VARIABLES
    132           */
    133          
    134          /*********************************************************************
    135           * EXTERNAL FUNCTIONS
    136           */
    137          
    138          /*********************************************************************
    139           * LOCAL VARIABLES
    140           */

   \                                 In  segment XDATA_Z, align 1, keep-with-next
    141          uint8 SampleApp_TaskID;   // Task ID for internal task/event processing
   \                     SampleApp_TaskID:
   \   000000                DS 1
   \   000001                REQUIRE __INIT_XDATA_Z
    142                                    // This variable will be received when
    143                                    // SampleApp_Init() is called.

   \                                 In  segment XDATA_Z, align 1, keep-with-next
    144          devStates_t SampleApp_NwkState;
   \                     SampleApp_NwkState:
   \   000000                DS 1
   \   000001                REQUIRE __INIT_XDATA_Z
    145          

   \                                 In  segment XDATA_Z, align 1, keep-with-next
    146          uint8 SampleApp_TransID;  // This is the unique message ID (counter)
   \                     SampleApp_TransID:
   \   000000                DS 1
   \   000001                REQUIRE __INIT_XDATA_Z
    147          

   \                                 In  segment XDATA_Z, align 1, keep-with-next
    148          afAddrType_t SampleApp_Periodic_DstAddr;
   \                     SampleApp_Periodic_DstAddr:
   \   000000                DS 12
   \   00000C                REQUIRE __INIT_XDATA_Z

   \                                 In  segment XDATA_Z, align 1, keep-with-next
    149          afAddrType_t SampleApp_Flash_DstAddr;
   \                     SampleApp_Flash_DstAddr:
   \   000000                DS 12
   \   00000C                REQUIRE __INIT_XDATA_Z
    150          

   \                                 In  segment XDATA_Z, align 1, keep-with-next
    151          afAddrType_t Point_To_Point_DstAddr;//网蜂点对点通信定义
   \                     Point_To_Point_DstAddr:
   \   000000                DS 12
   \   00000C                REQUIRE __INIT_XDATA_Z
    152          

   \                                 In  segment XDATA_Z, align 1, keep-with-next
    153          aps_Group_t SampleApp_Group;
   \                     SampleApp_Group:
   \   000000                DS 18
   \   000012                REQUIRE __INIT_XDATA_Z
    154          

   \                                 In  segment XDATA_Z, align 1, keep-with-next
    155          uint8 SampleAppPeriodicCounter = 0;
   \                     SampleAppPeriodicCounter:
   \   000000                DS 1
   \   000001                REQUIRE __INIT_XDATA_Z

   \                                 In  segment XDATA_Z, align 1, keep-with-next
    156          uint8 SampleAppFlashCounter = 0;
   \                     SampleAppFlashCounter:
   \   000000                DS 1
   \   000001                REQUIRE __INIT_XDATA_Z
    157          
    158          /*********************************************************************
    159           * LOCAL FUNCTIONS
    160           */
    161          void SampleApp_HandleKeys( uint8 shift, uint8 keys );
    162          void SampleApp_MessageMSGCB( afIncomingMSGPacket_t *pckt );
    163          void SampleApp_SendPeriodicMessage( void );
    164          void SampleApp_SendFlashMessage( uint16 flashTime );
    165          void SampleApp_SendPointToPointMessage(void );
    166          
    167          /*********************************************************************
    168           * NETWORK LAYER CALLBACKS
    169           */
    170          
    171          /*********************************************************************
    172           * PUBLIC FUNCTIONS
    173           */
    174          
    175          /*********************************************************************
    176           * @fn      SampleApp_Init
    177           *
    178           * @brief   Initialization function for the Generic App Task.
    179           *          This is called during initialization and should contain
    180           *          any application specific initialization (ie. hardware
    181           *          initialization/setup, table initialization, power up
    182           *          notificaiton ... ).
    183           *
    184           * @param   task_id - the ID assigned by OSAL.  This ID should be
    185           *                    used to send messages and set timers.
    186           *
    187           * @return  none
    188           */

   \                                 In  segment BANKED_CODE, align 1, keep-with-next
    189          void SampleApp_Init( uint8 task_id )
   \                     SampleApp_Init:
    190          {
   \   000000   74F5         MOV     A,#-0xb
   \   000002   12....       LCALL   ?BANKED_ENTER_XDATA
   \   000005                ; Saved register size: 11
   \   000005                ; Auto size: 0
   \   000005   E9           MOV     A,R1
   \   000006   FE           MOV     R6,A
    191            SampleApp_TaskID = task_id;
   \   000007   90....       MOV     DPTR,#SampleApp_TaskID
   \   00000A   F0           MOVX    @DPTR,A
    192            SampleApp_NwkState = DEV_INIT;
   \   00000B   90....       MOV     DPTR,#SampleApp_NwkState
   \   00000E   7401         MOV     A,#0x1
   \   000010   F0           MOVX    @DPTR,A
    193            SampleApp_TransID = 0;
   \   000011   90....       MOV     DPTR,#SampleApp_TransID
   \   000014   E4           CLR     A
   \   000015   F0           MOVX    @DPTR,A
    194            
    195            MT_UartInit();//串口初始化
   \   000016                ; Setup parameters for call to function MT_UartInit
   \   000016   12....       LCALL   ??MT_UartInit?relay
    196            MT_UartRegisterTaskID(task_id);//登记任务号
   \   000019                ; Setup parameters for call to function MT_UartRegisterTaskID
   \   000019   EE           MOV     A,R6
   \   00001A   F9           MOV     R1,A
   \   00001B   12....       LCALL   ??MT_UartRegisterTaskID?relay
    197            HalUARTWrite(0,"Hello World\n",12); //（串口0，'字符'，字符个数。）
   \   00001E                ; Setup parameters for call to function HalUARTWrite
   \   00001E   7C0C         MOV     R4,#0xc
   \   000020   7D00         MOV     R5,#0x0
   \   000022   7A..         MOV     R2,#`?<Constant "Hello World\\n">` & 0xff
   \   000024   7B..         MOV     R3,#(`?<Constant "Hello World\\n">` >> 8) & 0xff
   \   000026   7900         MOV     R1,#0x0
   \   000028   12....       LCALL   ??HalUARTWrite?relay
    198            
    199            //温湿度传感器初始化 P0.6
    200            P0SEL &= 0xbf;
   \   00002B   53F3BF       ANL     0xf3,#0xbf
    201            
    202           /******光敏电阻电路初始化******/
    203           P2SEL &= ~0X01;    //设置P2.0为普通IO口  
   \   00002E   53F5FE       ANL     0xf5,#0xfe
    204           P2DIR &= ~0X01;    // 在P2.0口，设置为输入模式
   \   000031   53FFFE       ANL     0xff,#0xfe
    205           P2INP &= ~0x01;    //打开P2.0上拉电阻
   \   000034   53F7FE       ANL     0xf7,#0xfe
    206           
    207           //LED1初始化
    208           P1DIR |=0X01;       //P1.0定义为输出
   \   000037   43FE01       ORL     0xfe,#0x1
    209           P1INP |=0X01;       //打开下拉
   \   00003A   43F601       ORL     0xf6,#0x1
    210          
    211           //KEY1初始化
    212           P0SEL &=~0X01;
   \   00003D   53F3FE       ANL     0xf3,#0xfe
    213           P0DIR &=~0X01;
   \   000040   53FDFE       ANL     0xfd,#0xfe
    214           P0INP &=~0x01;
   \   000043   538FFE       ANL     0x8f,#0xfe
    215            // Device hardware initialization can be added here or in main() (Zmain.c).
    216            // If the hardware is application specific - add it here.
    217            // If the hardware is other parts of the device add it in main().
    218          
    219           #if defined ( BUILD_ALL_DEVICES )
    220            // The "Demo" target is setup to have BUILD_ALL_DEVICES and HOLD_AUTO_START
    221            // We are looking at a jumper (defined in SampleAppHw.c) to be jumpered
    222            // together - if they are - we will start up a coordinator. Otherwise,
    223            // the device will start as a router.
    224            if ( readCoordinatorJumper() )
    225              zgDeviceLogicalType = ZG_DEVICETYPE_COORDINATOR;
    226            else
    227              zgDeviceLogicalType = ZG_DEVICETYPE_ROUTER;
    228          #endif // BUILD_ALL_DEVICES
    229          
    230          #if defined ( HOLD_AUTO_START )
    231            // HOLD_AUTO_START is a compile option that will surpress ZDApp
    232            //  from starting the device and wait for the application to
    233            //  start the device.
    234            ZDOInitDevice(0);
    235          #endif
    236          
    237            // Setup for the periodic message's destination address
    238            // Broadcast to everyone
    239            SampleApp_Periodic_DstAddr.addrMode = (afAddrMode_t)AddrBroadcast;
   \   000046   90....       MOV     DPTR,#SampleApp_Periodic_DstAddr + 8
   \   000049   740F         MOV     A,#0xf
   \   00004B   F0           MOVX    @DPTR,A
    240            SampleApp_Periodic_DstAddr.endPoint = SAMPLEAPP_ENDPOINT;
   \   00004C   A3           INC     DPTR
   \   00004D   7414         MOV     A,#0x14
   \   00004F   F0           MOVX    @DPTR,A
    241            SampleApp_Periodic_DstAddr.addr.shortAddr = 0xFFFF;
   \   000050   90....       MOV     DPTR,#SampleApp_Periodic_DstAddr
   \   000053   74FF         MOV     A,#-0x1
   \   000055   F0           MOVX    @DPTR,A
   \   000056   A3           INC     DPTR
   \   000057   F0           MOVX    @DPTR,A
    242          
    243            // Setup for the flash command's destination address - Group 1
    244            SampleApp_Flash_DstAddr.addrMode = (afAddrMode_t)afAddrGroup;
   \   000058   90....       MOV     DPTR,#SampleApp_Flash_DstAddr + 8
   \   00005B   7401         MOV     A,#0x1
   \   00005D   F0           MOVX    @DPTR,A
    245            SampleApp_Flash_DstAddr.endPoint = SAMPLEAPP_ENDPOINT;
   \   00005E   A3           INC     DPTR
   \   00005F   7414         MOV     A,#0x14
   \   000061   F0           MOVX    @DPTR,A
    246            SampleApp_Flash_DstAddr.addr.shortAddr = SAMPLEAPP_FLASH_GROUP;
   \   000062   90....       MOV     DPTR,#SampleApp_Flash_DstAddr
   \   000065   7401         MOV     A,#0x1
   \   000067   F0           MOVX    @DPTR,A
   \   000068   A3           INC     DPTR
   \   000069   E4           CLR     A
   \   00006A   F0           MOVX    @DPTR,A
    247            
    248            // 网蜂点对点通讯定义
    249              Point_To_Point_DstAddr.addrMode = (afAddrMode_t)Addr16Bit;//点播
   \   00006B   90....       MOV     DPTR,#Point_To_Point_DstAddr + 8
   \   00006E   7402         MOV     A,#0x2
   \   000070   F0           MOVX    @DPTR,A
    250              Point_To_Point_DstAddr.endPoint = SAMPLEAPP_ENDPOINT;
   \   000071   A3           INC     DPTR
   \   000072   7414         MOV     A,#0x14
   \   000074   F0           MOVX    @DPTR,A
    251              Point_To_Point_DstAddr.addr.shortAddr = 0x0000; //发给协调器
   \   000075   90....       MOV     DPTR,#Point_To_Point_DstAddr
   \   000078   E4           CLR     A
   \   000079   F0           MOVX    @DPTR,A
   \   00007A   A3           INC     DPTR
   \   00007B   F0           MOVX    @DPTR,A
    252          
    253          
    254            // Fill out the endpoint description.
    255            SampleApp_epDesc.endPoint = SAMPLEAPP_ENDPOINT;
   \   00007C   90....       MOV     DPTR,#SampleApp_epDesc
   \   00007F   7414         MOV     A,#0x14
   \   000081   F0           MOVX    @DPTR,A
    256            SampleApp_epDesc.task_id = &SampleApp_TaskID;
   \   000082   A3           INC     DPTR
   \   000083   74..         MOV     A,#SampleApp_TaskID & 0xff
   \   000085   F0           MOVX    @DPTR,A
   \   000086   A3           INC     DPTR
   \   000087   74..         MOV     A,#(SampleApp_TaskID >> 8) & 0xff
   \   000089   F0           MOVX    @DPTR,A
    257            SampleApp_epDesc.simpleDesc
    258                      = (SimpleDescriptionFormat_t *)&SampleApp_SimpleDesc;
   \   00008A   A3           INC     DPTR
   \   00008B   74..         MOV     A,#SampleApp_SimpleDesc & 0xff
   \   00008D   F0           MOVX    @DPTR,A
   \   00008E   A3           INC     DPTR
   \   00008F   74..         MOV     A,#(SampleApp_SimpleDesc >> 8) & 0xff
   \   000091   F0           MOVX    @DPTR,A
    259            SampleApp_epDesc.latencyReq = noLatencyReqs;
   \   000092   A3           INC     DPTR
   \   000093   E4           CLR     A
   \   000094   F0           MOVX    @DPTR,A
    260          
    261            // Register the endpoint description with the AF
    262            afRegister( &SampleApp_epDesc );
   \   000095                ; Setup parameters for call to function afRegister
   \   000095   7A..         MOV     R2,#SampleApp_epDesc & 0xff
   \   000097   7B..         MOV     R3,#(SampleApp_epDesc >> 8) & 0xff
   \   000099   12....       LCALL   ??afRegister?relay
    263          
    264            // Register for all key events - This app will handle all key events
    265            RegisterForKeys( SampleApp_TaskID );
   \   00009C                ; Setup parameters for call to function RegisterForKeys
   \   00009C   90....       MOV     DPTR,#SampleApp_TaskID
   \   00009F   E0           MOVX    A,@DPTR
   \   0000A0   F9           MOV     R1,A
   \   0000A1   12....       LCALL   ??RegisterForKeys?relay
    266          
    267            // By default, all devices start out in Group 1
    268            SampleApp_Group.ID = 0x0001;
   \   0000A4   90....       MOV     DPTR,#SampleApp_Group
   \   0000A7   7401         MOV     A,#0x1
   \   0000A9   F0           MOVX    @DPTR,A
   \   0000AA   A3           INC     DPTR
   \   0000AB   E4           CLR     A
   \   0000AC   F0           MOVX    @DPTR,A
    269            osal_memcpy( SampleApp_Group.name, "Group 1", 7  );
   \   0000AD                ; Setup parameters for call to function osal_memcpy
   \   0000AD   75....       MOV     ?V0 + 0,#`?<Constant "Group 1">` & 0xff
   \   0000B0   75....       MOV     ?V0 + 1,#(`?<Constant "Group 1">` >> 8) & 0xff
   \   0000B3   F5..         MOV     ?V0 + 2,A
   \   0000B5   78..         MOV     R0,#?V0 + 0
   \   0000B7   12....       LCALL   ?PUSH_XSTACK_I_THREE
   \   0000BA   7C07         MOV     R4,#0x7
   \   0000BC   7D00         MOV     R5,#0x0
   \   0000BE   7A..         MOV     R2,#(SampleApp_Group + 2) & 0xff
   \   0000C0   7B..         MOV     R3,#((SampleApp_Group + 2) >> 8) & 0xff
   \   0000C2   12....       LCALL   ??osal_memcpy?relay
   \   0000C5   7403         MOV     A,#0x3
   \   0000C7   12....       LCALL   ?DEALLOC_XSTACK8
    270            aps_AddGroup( SAMPLEAPP_ENDPOINT, &SampleApp_Group );
   \   0000CA                ; Setup parameters for call to function aps_AddGroup
   \   0000CA   7A..         MOV     R2,#SampleApp_Group & 0xff
   \   0000CC   7B..         MOV     R3,#(SampleApp_Group >> 8) & 0xff
   \   0000CE   7914         MOV     R1,#0x14
   \   0000D0   12....       LCALL   ??aps_AddGroup?relay
    271          
    272          #if defined ( LCD_SUPPORTED )
    273            HalLcdWriteString( "SampleApp", HAL_LCD_LINE_1 );
   \   0000D3                ; Setup parameters for call to function HalLcdWriteString
   \   0000D3   7901         MOV     R1,#0x1
   \   0000D5   7A..         MOV     R2,#`?<Constant "SampleApp">` & 0xff
   \   0000D7   7B..         MOV     R3,#(`?<Constant "SampleApp">` >> 8) & 0xff
   \   0000D9   12....       LCALL   ??HalLcdWriteString?relay
    274          #endif
    275          }
   \   0000DC   7F03         MOV     R7,#0x3
   \   0000DE   02....       LJMP    ?BANKED_LEAVE_XDATA
   \   0000E1                REQUIRE P0SEL
   \   0000E1                REQUIRE P2SEL
   \   0000E1                REQUIRE P2DIR
   \   0000E1                REQUIRE P2INP
   \   0000E1                REQUIRE P1DIR
   \   0000E1                REQUIRE P1INP
   \   0000E1                REQUIRE P0DIR
   \   0000E1                REQUIRE P0INP
    276          
    277          /*********************************************************************
    278           * @fn      SampleApp_ProcessEvent
    279           *
    280           * @brief   Generic Application Task event processor.  This function
    281           *          is called to process all events for the task.  Events
    282           *          include timers, messages and any other user defined events.
    283           *
    284           * @param   task_id  - The OSAL assigned task ID.
    285           * @param   events - events to process.  This is a bit map and can
    286           *                   contain more than one event.
    287           *
    288           * @return  none
    289           */

   \                                 In  segment BANKED_CODE, align 1, keep-with-next
    290          uint16 SampleApp_ProcessEvent( uint8 task_id, uint16 events )
   \                     SampleApp_ProcessEvent:
    291          {
   \   000000   74F4         MOV     A,#-0xc
   \   000002   12....       LCALL   ?BANKED_ENTER_XDATA
   \   000005                ; Saved register size: 12
   \   000005                ; Auto size: 8
   \   000005   74F8         MOV     A,#-0x8
   \   000007   12....       LCALL   ?ALLOC_XSTACK8
   \   00000A   EA           MOV     A,R2
   \   00000B   FE           MOV     R6,A
   \   00000C   EB           MOV     A,R3
   \   00000D   FF           MOV     R7,A
    292            afIncomingMSGPacket_t *MSGpkt;
    293            (void)task_id;  // Intentionally unreferenced parameter
    294          
    295            if ( events & SYS_EVENT_MSG )
   \   00000E   5480         ANL     A,#0x80
   \   000010   6075         JZ      ??SampleApp_ProcessEvent_0
    296            {
    297              MSGpkt = (afIncomingMSGPacket_t *)osal_msg_receive( SampleApp_TaskID );
   \   000012                ; Setup parameters for call to function osal_msg_receive
   \   000012   8026         SJMP    ??SampleApp_ProcessEvent_1
    298              while ( MSGpkt )
    299              {
    300                switch ( MSGpkt->hdr.event )
    301                {
    302                  // Received when a key is pressed
    303                  case KEY_CHANGE:
    304                    SampleApp_HandleKeys( ((keyChange_t *)MSGpkt)->state, ((keyChange_t *)MSGpkt)->keys );
    305                    break;
    306          
    307                  // Received when a messages is received (OTA) for this endpoint
    308                  case AF_INCOMING_MSG_CMD:
    309                    SampleApp_MessageMSGCB( MSGpkt );
    310                    break;
    311          
    312                  // Received whenever the device changes state in the network
    313                  case ZDO_STATE_CHANGE:
    314                    SampleApp_NwkState = (devStates_t)(MSGpkt->hdr.status);
   \                     ??SampleApp_ProcessEvent_2:
   \   000014   A3           INC     DPTR
   \   000015   E0           MOVX    A,@DPTR
   \   000016   90....       MOV     DPTR,#SampleApp_NwkState
   \   000019   F0           MOVX    @DPTR,A
    315                    if ( (//SampleApp_NwkState == DEV_ZB_COORD)|| //协调器不给自己点播
    316                         (SampleApp_NwkState == DEV_ROUTER)
    317                        || (SampleApp_NwkState == DEV_END_DEVICE) ))
   \   00001A   6407         XRL     A,#0x7
   \   00001C   6005         JZ      ??SampleApp_ProcessEvent_3
   \   00001E   E0           MOVX    A,@DPTR
   \   00001F   6406         XRL     A,#0x6
   \   000021   7010         JNZ     ??SampleApp_ProcessEvent_4
    318                    {
    319                      // Start sending the periodic message in a regular interval.
    320                      osal_start_timerEx( SampleApp_TaskID,
    321                                        SAMPLEAPP_SEND_PERIODIC_MSG_EVT,
    322                                        SAMPLEAPP_SEND_PERIODIC_MSG_TIMEOUT );
   \                     ??SampleApp_ProcessEvent_3:
   \   000023                ; Setup parameters for call to function osal_start_timerEx
   \   000023   7CF4         MOV     R4,#-0xc
   \   000025   7D01         MOV     R5,#0x1
   \   000027   7A01         MOV     R2,#0x1
   \   000029   7B00         MOV     R3,#0x0
   \   00002B   90....       MOV     DPTR,#SampleApp_TaskID
   \   00002E   E0           MOVX    A,@DPTR
   \   00002F   F9           MOV     R1,A
   \   000030   12....       LCALL   ??osal_start_timerEx?relay
    323                    }
    324                    else
    325                    {
    326                      // Device is no longer in the network
    327                    }
    328                    break;
    329          
    330                  default:
    331                    break;
    332                }
    333          
    334                // Release the memory
    335                osal_msg_deallocate( (uint8 *)MSGpkt );
   \                     ??SampleApp_ProcessEvent_4:
   \   000033                ; Setup parameters for call to function osal_msg_deallocate
   \   000033   AA..         MOV     R2,?V0 + 0
   \   000035   AB..         MOV     R3,?V0 + 1
   \   000037   12....       LCALL   ??osal_msg_deallocate?relay
    336          
    337                // Next - if one is available
    338                MSGpkt = (afIncomingMSGPacket_t *)osal_msg_receive( SampleApp_TaskID );
   \   00003A                ; Setup parameters for call to function osal_msg_receive
   \                     ??SampleApp_ProcessEvent_1:
   \   00003A   90....       MOV     DPTR,#SampleApp_TaskID
   \   00003D   E0           MOVX    A,@DPTR
   \   00003E   F9           MOV     R1,A
   \   00003F   12....       LCALL   ??osal_msg_receive?relay
   \   000042   8A..         MOV     ?V0 + 0,R2
   \   000044   8B..         MOV     ?V0 + 1,R3
   \   000046   E5..         MOV     A,?V0 + 0
   \   000048   45..         ORL     A,?V0 + 1
   \   00004A   6032         JZ      ??SampleApp_ProcessEvent_5
   \   00004C   85..82       MOV     DPL,?V0 + 0
   \   00004F   85..83       MOV     DPH,?V0 + 1
   \   000052   E0           MOVX    A,@DPTR
   \   000053   24E6         ADD     A,#-0x1a
   \   000055   601E         JZ      ??SampleApp_ProcessEvent_6
   \   000057   245A         ADD     A,#0x5a
   \   000059   6006         JZ      ??SampleApp_ProcessEvent_7
   \   00005B   24EF         ADD     A,#-0x11
   \   00005D   60B5         JZ      ??SampleApp_ProcessEvent_2
   \   00005F   80D2         SJMP    ??SampleApp_ProcessEvent_4
   \                     ??SampleApp_ProcessEvent_7:
   \   000061                ; Setup parameters for call to function SampleApp_HandleKeys
   \   000061   A3           INC     DPTR
   \   000062   A3           INC     DPTR
   \   000063   A3           INC     DPTR
   \   000064   E0           MOVX    A,@DPTR
   \   000065   FA           MOV     R2,A
   \   000066   85..82       MOV     DPL,?V0 + 0
   \   000069   85..83       MOV     DPH,?V0 + 1
   \   00006C   A3           INC     DPTR
   \   00006D   A3           INC     DPTR
   \   00006E   E0           MOVX    A,@DPTR
   \   00006F   F9           MOV     R1,A
   \   000070   12....       LCALL   ??SampleApp_HandleKeys?relay
   \   000073   80BE         SJMP    ??SampleApp_ProcessEvent_4
   \                     ??SampleApp_ProcessEvent_6:
   \   000075                ; Setup parameters for call to function SampleApp_MessageMSGCB
   \   000075   AA..         MOV     R2,?V0 + 0
   \   000077   AB..         MOV     R3,?V0 + 1
   \   000079   12....       LCALL   ??SampleApp_MessageMSGCB?relay
   \   00007C   80B5         SJMP    ??SampleApp_ProcessEvent_4
    339              }
    340          
    341              // return unprocessed events
    342              return (events ^ SYS_EVENT_MSG);
   \                     ??SampleApp_ProcessEvent_5:
   \   00007E   EE           MOV     A,R6
   \   00007F   FA           MOV     R2,A
   \   000080   EF           MOV     A,R7
   \   000081   6480         XRL     A,#0x80
   \                     ??SampleApp_ProcessEvent_8:
   \   000083   FB           MOV     R3,A
   \   000084   02....       LJMP    ??SampleApp_ProcessEvent_9 & 0xFFFF
    343            }
    344          
    345            // Send a message out - This event is generated by a timer
    346            //  (setup in SampleApp_Init()).
    347            if ( events & SAMPLEAPP_SEND_PERIODIC_MSG_EVT )
   \                     ??SampleApp_ProcessEvent_0:
   \   000087   EE           MOV     A,R6
   \   000088   A2E0         MOV     C,0xE0 /* A   */.0
   \   00008A   4003         JC      $+5
   \   00008C   02....       LJMP    ??SampleApp_ProcessEvent_10 & 0xFFFF
    348            {
    349              
    350              uint8 T[8];     //温度+提示符     
    351              DHT11();   //温度检测    
   \   00008F                ; Setup parameters for call to function DHT11
   \   00008F   12....       LCALL   ??DHT11?relay
    352              T[0]=wendu_shi+48;
   \   000092   90....       MOV     DPTR,#wendu_shi
   \   000095   E0           MOVX    A,@DPTR
   \   000096   2430         ADD     A,#0x30
   \   000098   85..82       MOV     DPL,?XSP + 0
   \   00009B   85..83       MOV     DPH,?XSP + 1
   \   00009E   F0           MOVX    @DPTR,A
    353              T[1]=wendu_ge+48;
   \   00009F   90....       MOV     DPTR,#wendu_ge
   \   0000A2   E0           MOVX    A,@DPTR
   \   0000A3   2430         ADD     A,#0x30
   \   0000A5   C0E0         PUSH    A
   \   0000A7   7401         MOV     A,#0x1
   \   0000A9   12....       LCALL   ?XSTACK_DISP0_8
   \   0000AC   D0E0         POP     A
   \   0000AE   F0           MOVX    @DPTR,A
    354              T[2]=' ';
   \   0000AF   7402         MOV     A,#0x2
   \   0000B1   12....       LCALL   ?XSTACK_DISP0_8
   \   0000B4   7420         MOV     A,#0x20
   \   0000B6   F0           MOVX    @DPTR,A
    355              T[3]=shidu_shi+48;
   \   0000B7   90....       MOV     DPTR,#shidu_shi
   \   0000BA   E0           MOVX    A,@DPTR
   \   0000BB   2430         ADD     A,#0x30
   \   0000BD   C0E0         PUSH    A
   \   0000BF   7403         MOV     A,#0x3
   \   0000C1   12....       LCALL   ?XSTACK_DISP0_8
   \   0000C4   D0E0         POP     A
   \   0000C6   F0           MOVX    @DPTR,A
    356              T[4]=shidu_ge+48;
   \   0000C7   90....       MOV     DPTR,#shidu_ge
   \   0000CA   E0           MOVX    A,@DPTR
   \   0000CB   2430         ADD     A,#0x30
   \   0000CD   C0E0         PUSH    A
   \   0000CF   7404         MOV     A,#0x4
   \   0000D1   12....       LCALL   ?XSTACK_DISP0_8
   \   0000D4   D0E0         POP     A
   \   0000D6   F0           MOVX    @DPTR,A
    357              T[5]=' ';
   \   0000D7   7405         MOV     A,#0x5
   \   0000D9   12....       LCALL   ?XSTACK_DISP0_8
   \   0000DC   7420         MOV     A,#0x20
   \   0000DE   F0           MOVX    @DPTR,A
    358              T[6]=' ';
   \   0000DF   7406         MOV     A,#0x6
   \   0000E1   12....       LCALL   ?XSTACK_DISP0_8
   \   0000E4   7420         MOV     A,#0x20
   \   0000E6   F0           MOVX    @DPTR,A
    359              T[7]=' ';   
   \   0000E7   7407         MOV     A,#0x7
   \   0000E9   12....       LCALL   ?XSTACK_DISP0_8
   \   0000EC   7420         MOV     A,#0x20
   \   0000EE   F0           MOVX    @DPTR,A
    360            /*******串口打印 WEBEE*********/
    361              HalUARTWrite(0,"temp=",5);
   \   0000EF                ; Setup parameters for call to function HalUARTWrite
   \   0000EF   7C05         MOV     R4,#0x5
   \   0000F1   7D00         MOV     R5,#0x0
   \   0000F3   7A..         MOV     R2,#`?<Constant "temp=">` & 0xff
   \   0000F5   7B..         MOV     R3,#(`?<Constant "temp=">` >> 8) & 0xff
   \   0000F7   12....       LCALL   ?Subroutine1 & 0xFFFF
    362              HalUARTWrite(0,T,2);
   \                     ??CrossCallReturnLabel_0:
   \   0000FA   85..82       MOV     DPL,?XSP + 0
   \   0000FD   85..83       MOV     DPH,?XSP + 1
   \   000100   AA82         MOV     R2,DPL
   \   000102   AB83         MOV     R3,DPH
   \   000104   7900         MOV     R1,#0x0
   \   000106   12....       LCALL   ??HalUARTWrite?relay
    363              HalUARTWrite(0,"\n\r",2);    
   \   000109   75....       MOV     ?V0 + 0,#`?<Constant "\\n\\r">` & 0xff
   \   00010C   75....       MOV     ?V0 + 1,#(`?<Constant "\\n\\r">` >> 8) & 0xff
   \   00010F                ; Setup parameters for call to function HalUARTWrite
   \   00010F   7C02         MOV     R4,#0x2
   \   000111   7D00         MOV     R5,#0x0
   \   000113   AA..         MOV     R2,?V0 + 0
   \   000115   AB..         MOV     R3,?V0 + 1
   \   000117   7900         MOV     R1,#0x0
   \   000119   12....       LCALL   ??HalUARTWrite?relay
    364              HalUARTWrite(0,"humidity=",9);
   \   00011C                ; Setup parameters for call to function HalUARTWrite
   \   00011C   7C09         MOV     R4,#0x9
   \   00011E   7D00         MOV     R5,#0x0
   \   000120   7A..         MOV     R2,#`?<Constant "humidity=">` & 0xff
   \   000122   7B..         MOV     R3,#(`?<Constant "humidity=">` >> 8) & 0xff
   \   000124   12....       LCALL   ?Subroutine1 & 0xFFFF
    365              HalUARTWrite(0,T+3,2);
   \                     ??CrossCallReturnLabel_1:
   \   000127   7403         MOV     A,#0x3
   \   000129   12....       LCALL   ?XSTACK_DISP0_8
   \   00012C   AA82         MOV     R2,DPL
   \   00012E   AB83         MOV     R3,DPH
   \   000130   12....       LCALL   ?Subroutine1 & 0xFFFF
    366              HalUARTWrite(0,"\n\r",2);    
   \                     ??CrossCallReturnLabel_2:
   \   000133   AA..         MOV     R2,?V0 + 0
   \   000135   AB..         MOV     R3,?V0 + 1
   \   000137   7900         MOV     R1,#0x0
   \   000139   12....       LCALL   ??HalUARTWrite?relay
    367              /*******LCD显示  WEBEE*********/
    368              HalLcdWriteString("Temp: humidity:", HAL_LCD_LINE_3 );//LCD显示
   \   00013C                ; Setup parameters for call to function HalLcdWriteString
   \   00013C   7903         MOV     R1,#0x3
   \   00013E   7A..         MOV     R2,#`?<Constant "Temp: humidity:">` & 0xff
   \   000140   7B..         MOV     R3,#(`?<Constant "Temp: humidity:">` >> 8) & 0xff
   \   000142   12....       LCALL   ??HalLcdWriteString?relay
    369              HalLcdWriteString( T, HAL_LCD_LINE_4 );//LCD显示   
                                        ^
Warning[Pe167]: argument of type "unsigned char *" is incompatible with
          parameter of type "char *"
   \   000145                ; Setup parameters for call to function HalLcdWriteString
   \   000145   7904         MOV     R1,#0x4
   \   000147   85..82       MOV     DPL,?XSP + 0
   \   00014A   85..83       MOV     DPH,?XSP + 1
   \   00014D   AA82         MOV     R2,DPL
   \   00014F   AB83         MOV     R3,DPH
   \   000151   12....       LCALL   ??HalLcdWriteString?relay
    370          
    371               SampleApp_SendPointToPointMessage();//点播函数
   \   000154                ; Setup parameters for call to function SampleApp_SendPointToPointMessage
   \   000154   12....       LCALL   ??SampleApp_SendPointToPointMessage?relay
    372               
    373              // Setup to send message again in normal period (+ a little jitter)
    374              osal_start_timerEx( SampleApp_TaskID, SAMPLEAPP_SEND_PERIODIC_MSG_EVT,
    375                  (SAMPLEAPP_SEND_PERIODIC_MSG_TIMEOUT + (osal_rand() & 0x00FF)) );
   \   000157                ; Setup parameters for call to function osal_rand
   \   000157   12....       LCALL   ??osal_rand?relay
   \   00015A                ; Setup parameters for call to function osal_start_timerEx
   \   00015A   EA           MOV     A,R2
   \   00015B   24F4         ADD     A,#-0xc
   \   00015D   FC           MOV     R4,A
   \   00015E   E4           CLR     A
   \   00015F   3401         ADDC    A,#0x1
   \   000161   FD           MOV     R5,A
   \   000162   7A01         MOV     R2,#0x1
   \   000164   7B00         MOV     R3,#0x0
   \   000166   90....       MOV     DPTR,#SampleApp_TaskID
   \   000169   E0           MOVX    A,@DPTR
   \   00016A   F9           MOV     R1,A
   \   00016B   12....       LCALL   ??osal_start_timerEx?relay
    376          
    377              // return unprocessed events
    378              return (events ^ SAMPLEAPP_SEND_PERIODIC_MSG_EVT);
   \   00016E   EE           MOV     A,R6
   \   00016F   6401         XRL     A,#0x1
   \   000171   FA           MOV     R2,A
   \   000172   EF           MOV     A,R7
   \   000173   02....       LJMP    ??SampleApp_ProcessEvent_8 & 0xFFFF
    379            }
    380          
    381            // Discard unknown events
    382            return 0;
   \                     ??SampleApp_ProcessEvent_10:
   \   000176   7A00         MOV     R2,#0x0
   \   000178   7B00         MOV     R3,#0x0
   \                     ??SampleApp_ProcessEvent_9:
   \   00017A   7408         MOV     A,#0x8
   \   00017C   12....       LCALL   ?DEALLOC_XSTACK8
   \   00017F   7F04         MOV     R7,#0x4
   \   000181   02....       LJMP    ?BANKED_LEAVE_XDATA
    383          }

   \                                 In  segment BANKED_CODE, align 1, keep-with-next
   \                     ?Subroutine1:
   \   000000   7900         MOV     R1,#0x0
   \   000002   12....       LCALL   ??HalUARTWrite?relay
   \   000005                ; Setup parameters for call to function HalUARTWrite
   \   000005                ; Setup parameters for call to function HalUARTWrite
   \   000005                ; Setup parameters for call to function HalUARTWrite
   \   000005                ; Setup parameters for call to function HalUARTWrite
   \   000005   7C02         MOV     R4,#0x2
   \   000007   7D00         MOV     R5,#0x0
   \   000009   22           RET
    384          
    385          /*********************************************************************
    386           * Event Generation Functions
    387           */
    388          /*********************************************************************
    389           * @fn      SampleApp_HandleKeys
    390           *
    391           * @brief   Handles all key events for this device.
    392           *
    393           * @param   shift - true if in shift/alt.
    394           * @param   keys - bit field for key events. Valid entries:
    395           *                 HAL_KEY_SW_2
    396           *                 HAL_KEY_SW_1
    397           *
    398           * @return  none
    399           */

   \                                 In  segment BANKED_CODE, align 1, keep-with-next
    400          void SampleApp_HandleKeys( uint8 shift, uint8 keys )
   \                     SampleApp_HandleKeys:
    401          {
   \   000000   74F6         MOV     A,#-0xa
   \   000002   12....       LCALL   ?BANKED_ENTER_XDATA
   \   000005                ; Saved register size: 10
   \   000005                ; Auto size: 0
   \   000005   EA           MOV     A,R2
   \   000006   FE           MOV     R6,A
    402            (void)shift;  // Intentionally unreferenced parameter
    403            if ( keys & HAL_KEY_SW_1 )
   \   000007   A2E0         MOV     C,0xE0 /* A   */.0
   \   000009   5007         JNC     ??SampleApp_HandleKeys_0
    404            {
    405              /* This key sends the Flash Command is sent to Group 1.
    406               * This device will not receive the Flash Command from this
    407               * device (even if it belongs to group 1).
    408               */
    409           /*     if(LIGHT==0 && LED1==1)
    410                  L=1;
    411                else if(LIGHT==0 && LED1==0)
    412                  L=2;
    413                else
    414                  L=3;*/
    415              SampleApp_SendFlashMessage( SAMPLEAPP_FLASH_DURATION );
   \   00000B                ; Setup parameters for call to function SampleApp_SendFlashMessage
   \   00000B   7AE8         MOV     R2,#-0x18
   \   00000D   7B03         MOV     R3,#0x3
   \   00000F   12....       LCALL   ??SampleApp_SendFlashMessage?relay
    416            }
    417          
    418            if ( keys & HAL_KEY_SW_2 )
   \                     ??SampleApp_HandleKeys_0:
   \   000012   EE           MOV     A,R6
   \   000013   A2E1         MOV     C,0xE0 /* A   */.1
   \   000015   5024         JNC     ??SampleApp_HandleKeys_1
    419            {
    420              /* The Flashr Command is sent to Group 1.
    421               * This key toggles this device in and out of group 1.
    422               * If this device doesn't belong to group 1, this application
    423               * will not receive the Flash command sent to group 1.
    424               */
    425              aps_Group_t *grp;
    426              grp = aps_FindGroup( SAMPLEAPP_ENDPOINT, SAMPLEAPP_FLASH_GROUP );
    427              if ( grp )
   \   000017                ; Setup parameters for call to function aps_FindGroup
   \   000017   7A01         MOV     R2,#0x1
   \   000019   7B00         MOV     R3,#0x0
   \   00001B   7914         MOV     R1,#0x14
   \   00001D   12....       LCALL   ??aps_FindGroup?relay
   \   000020   8B..         MOV     ?V0 + 1,R3
   \   000022   EA           MOV     A,R2
   \   000023   45..         ORL     A,?V0 + 1
   \   000025   600B         JZ      ??SampleApp_HandleKeys_2
    428              {
    429                // Remove from the group
    430                aps_RemoveGroup( SAMPLEAPP_ENDPOINT, SAMPLEAPP_FLASH_GROUP );
   \   000027                ; Setup parameters for call to function aps_RemoveGroup
   \   000027   7A01         MOV     R2,#0x1
   \   000029   7B00         MOV     R3,#0x0
   \   00002B   7914         MOV     R1,#0x14
   \   00002D   12....       LCALL   ??aps_RemoveGroup?relay
   \   000030   8009         SJMP    ??SampleApp_HandleKeys_1
    431              }
    432              else
    433              {
    434                // Add to the flash group
    435                aps_AddGroup( SAMPLEAPP_ENDPOINT, &SampleApp_Group );
   \                     ??SampleApp_HandleKeys_2:
   \   000032                ; Setup parameters for call to function aps_AddGroup
   \   000032   7A..         MOV     R2,#SampleApp_Group & 0xff
   \   000034   7B..         MOV     R3,#(SampleApp_Group >> 8) & 0xff
   \   000036   7914         MOV     R1,#0x14
   \   000038   12....       LCALL   ??aps_AddGroup?relay
    436              }
    437            }
    438          }
   \                     ??SampleApp_HandleKeys_1:
   \   00003B   80..         SJMP    ??Subroutine2_0

   \                                 In  segment BANKED_CODE, align 1, keep-with-next
   \                     ??Subroutine2_0:
   \   000000   7F02         MOV     R7,#0x2
   \   000002   02....       LJMP    ?BANKED_LEAVE_XDATA
    439          
    440          /*********************************************************************
    441           * LOCAL FUNCTIONS
    442           */
    443          
    444          /*********************************************************************
    445           * @fn      SampleApp_MessageMSGCB
    446           *
    447           * @brief   Data message processor callback.  This function processes
    448           *          any incoming data - probably from other devices.  So, based
    449           *          on cluster ID, perform the intended action.
    450           *
    451           * @param   none
    452           *
    453           * @return  none
    454           */

   \                                 In  segment BANKED_CODE, align 1, keep-with-next
    455          void SampleApp_MessageMSGCB( afIncomingMSGPacket_t *pkt )
   \                     SampleApp_MessageMSGCB:
    456          {
   \   000000   74F6         MOV     A,#-0xa
   \   000002   12....       LCALL   ?BANKED_ENTER_XDATA
   \   000005                ; Saved register size: 10
   \   000005                ; Auto size: 0
   \   000005   EA           MOV     A,R2
   \   000006   FE           MOV     R6,A
   \   000007   EB           MOV     A,R3
   \   000008   FF           MOV     R7,A
    457            uint16 flashTime;
    458            switch ( pkt->clusterId )
   \   000009   8E82         MOV     DPL,R6
   \   00000B   8F83         MOV     DPH,R7
   \   00000D   A3           INC     DPTR
   \   00000E   A3           INC     DPTR
   \   00000F   A3           INC     DPTR
   \   000010   A3           INC     DPTR
   \   000011   E0           MOVX    A,@DPTR
   \   000012   F5..         MOV     ?V0 + 0,A
   \   000014   A3           INC     DPTR
   \   000015   E0           MOVX    A,@DPTR
   \   000016   F5..         MOV     ?V0 + 1,A
   \   000018   78..         MOV     R0,#?V0 + 0
   \   00001A   12....       LCALL   ?US_SWITCH_DENSE
   \                     `?<Jumptable for SampleApp_MessageMSGCB>_0`:
   \   00001D   0200         DW        2
   \   00001F   01           DB        1
   \   000020   ....         DW        ??SampleApp_MessageMSGCB_0
   \   000022   ....         DW        ??SampleApp_MessageMSGCB_1
   \   000024   ....         DW        ??SampleApp_MessageMSGCB_2
    459            {
    460              case SAMPLEAPP_POINT_TO_POINT_CLUSTERID:
    461                HalUARTWrite(0,"$",1);
   \                     ??SampleApp_MessageMSGCB_2:
   \   000026                ; Setup parameters for call to function HalUARTWrite
   \   000026   7C01         MOV     R4,#0x1
   \   000028   7D00         MOV     R5,#0x0
   \   00002A   7A..         MOV     R2,#`?<Constant "$">` & 0xff
   \   00002C   7B..         MOV     R3,#(`?<Constant "$">` >> 8) & 0xff
   \   00002E   7900         MOV     R1,#0x0
   \   000030   12....       LCALL   ??HalUARTWrite?relay
    462                if(LIGHT==1)
   \   000033   A2A0         MOV     C,0xa0.0
   \   000035   500C         JNC     ??SampleApp_MessageMSGCB_3
    463                     { 
    464                         LED1=1;
   \   000037   D290         SETB    0x90.0
    465                         HalUARTWrite(0,"0",1);     //串口
   \   000039                ; Setup parameters for call to function HalUARTWrite
   \   000039   7C01         MOV     R4,#0x1
   \   00003B   7D00         MOV     R5,#0x0
   \   00003D   7A..         MOV     R2,#`?<Constant "0">` & 0xff
   \   00003F   7B..         MOV     R3,#(`?<Constant "0">` >> 8) & 0xff
   \   000041   800A         SJMP    ??SampleApp_MessageMSGCB_4
    466                      }
    467                  else 
    468                      {
    469                         LED1=0;
   \                     ??SampleApp_MessageMSGCB_3:
   \   000043   C290         CLR     0x90.0
    470                         HalUARTWrite(0,"1",1);       //串口
   \   000045                ; Setup parameters for call to function HalUARTWrite
   \   000045   7C01         MOV     R4,#0x1
   \   000047   7D00         MOV     R5,#0x0
   \   000049   7A..         MOV     R2,#`?<Constant "1">` & 0xff
   \   00004B   7B..         MOV     R3,#(`?<Constant "1">` >> 8) & 0xff
   \                     ??SampleApp_MessageMSGCB_4:
   \   00004D   7900         MOV     R1,#0x0
   \   00004F   12....       LCALL   ??HalUARTWrite?relay
    471                      }
    472                 /***********温度打印***************/
    473               HalUARTWrite(0,&pkt->cmd.Data[0],2); //温度
   \   000052   EE           MOV     A,R6
   \   000053   2422         ADD     A,#0x22
   \   000055   FE           MOV     R6,A
   \   000056   EF           MOV     A,R7
   \   000057   3400         ADDC    A,#0x0
   \   000059   FF           MOV     R7,A
   \   00005A                ; Setup parameters for call to function HalUARTWrite
   \   00005A   7C02         MOV     R4,#0x2
   \   00005C   7D00         MOV     R5,#0x0
   \   00005E   8E82         MOV     DPL,R6
   \   000060   8F83         MOV     DPH,R7
   \   000062   E0           MOVX    A,@DPTR
   \   000063   FA           MOV     R2,A
   \   000064   A3           INC     DPTR
   \   000065   E0           MOVX    A,@DPTR
   \   000066   FB           MOV     R3,A
   \   000067   12....       LCALL   ?Subroutine1 & 0xFFFF
    474                 /***************湿度打印****************/
    475               HalUARTWrite(0,&pkt->cmd.Data[2],2);  //湿度
   \                     ??CrossCallReturnLabel_3:
   \   00006A   8E82         MOV     DPL,R6
   \   00006C   8F83         MOV     DPH,R7
   \   00006E   E0           MOVX    A,@DPTR
   \   00006F   2402         ADD     A,#0x2
   \   000071   FA           MOV     R2,A
   \   000072   A3           INC     DPTR
   \   000073   E0           MOVX    A,@DPTR
   \   000074   3400         ADDC    A,#0x0
   \   000076   FB           MOV     R3,A
   \   000077   7900         MOV     R1,#0x0
   \   000079   12....       LCALL   ??HalUARTWrite?relay
    476               HalUARTWrite(0,"#",1);
   \   00007C                ; Setup parameters for call to function HalUARTWrite
   \   00007C   7C01         MOV     R4,#0x1
   \   00007E   7D00         MOV     R5,#0x0
   \   000080   7A..         MOV     R2,#`?<Constant "#">` & 0xff
   \   000082   7B..         MOV     R3,#(`?<Constant "#">` >> 8) & 0xff
   \   000084   7900         MOV     R1,#0x0
   \   000086   12....       LCALL   ??HalUARTWrite?relay
    477          /*     
    478               switch(L)
    479               {
    480                 case 0:
    481                 if(LIGHT==1)
    482                     { 
    483                         LED1=0;
    484                         HalUARTWrite(0,"Good\n",5);     //串口
    485                         L=0;
    486                      }
    487                  else 
    488                      {
    489                         LED1=1;
    490                         HalUARTWrite(0,"Warnimg\n",8);       //串口
    491                      }
    492                      break;
    493                  case 1:
    494                    LED1=0;
    495                    HalUARTWrite(0,"Warnimg\n",8);       //串口
    496                    break;
    497                  case 2:
    498                     HalUARTWrite(0,"Warnimg\n",8);       //串口
    499                      break;
    500                  case 3:
    501                     LED1=0;
    502                     HalUARTWrite(0,"Good\n",5);     //串口
    503                     L=0;
    504                    break;
    505                  }*/
    506                  break;
   \   000089   8041         SJMP    ??SampleApp_MessageMSGCB_0
    507          
    508              case SAMPLEAPP_FLASH_CLUSTERID:
    509                flashTime = BUILD_UINT16(pkt->cmd.Data[1], pkt->cmd.Data[2] );
    510                HalLedBlink( HAL_LED_4, 4, 50, (flashTime / 4) );
   \                     ??SampleApp_MessageMSGCB_1:
   \   00008B   EE           MOV     A,R6
   \   00008C   2422         ADD     A,#0x22
   \   00008E   F8           MOV     R0,A
   \   00008F   EF           MOV     A,R7
   \   000090   3400         ADDC    A,#0x0
   \   000092   F9           MOV     R1,A
   \   000093   E8           MOV     A,R0
   \   000094   FE           MOV     R6,A
   \   000095   E9           MOV     A,R1
   \   000096   FF           MOV     R7,A
   \   000097   8E82         MOV     DPL,R6
   \   000099   8F83         MOV     DPH,R7
   \   00009B   E0           MOVX    A,@DPTR
   \   00009C   F8           MOV     R0,A
   \   00009D   A3           INC     DPTR
   \   00009E   E0           MOVX    A,@DPTR
   \   00009F   F9           MOV     R1,A
   \   0000A0                ; Setup parameters for call to function HalLedBlink
   \   0000A0   8882         MOV     DPL,R0
   \   0000A2   8983         MOV     DPH,R1
   \   0000A4   A3           INC     DPTR
   \   0000A5   E0           MOVX    A,@DPTR
   \   0000A6   FA           MOV     R2,A
   \   0000A7   8882         MOV     DPL,R0
   \   0000A9   8983         MOV     DPH,R1
   \   0000AB   A3           INC     DPTR
   \   0000AC   A3           INC     DPTR
   \   0000AD   E0           MOVX    A,@DPTR
   \   0000AE   F9           MOV     R1,A
   \   0000AF   EA           MOV     A,R2
   \   0000B0   2400         ADD     A,#0x0
   \   0000B2   F5..         MOV     ?V0 + 0,A
   \   0000B4   E4           CLR     A
   \   0000B5   39           ADDC    A,R1
   \   0000B6   F5..         MOV     ?V0 + 1,A
   \   0000B8   7402         MOV     A,#0x2
   \   0000BA   78..         MOV     R0,#?V0 + 0
   \   0000BC   12....       LCALL   ?US_SHR
   \   0000BF   AC..         MOV     R4,?V0 + 0
   \   0000C1   AD..         MOV     R5,?V0 + 1
   \   0000C3   7B32         MOV     R3,#0x32
   \   0000C5   7A04         MOV     R2,#0x4
   \   0000C7   7908         MOV     R1,#0x8
   \   0000C9   12....       LCALL   ??HalLedBlink?relay
    511                break;
    512            }
    513          }
   \                     ??SampleApp_MessageMSGCB_0:
   \   0000CC   02....       LJMP    ??Subroutine2_0 & 0xFFFF
   \   0000CF                REQUIRE _A_P2
   \   0000CF                REQUIRE _A_P1
    514          
    515          /*********************************************************************
    516           * @fn      SampleApp_SendPeriodicMessage
    517           *
    518           * @brief   Send the periodic message.
    519           *
    520           * @param   none
    521           *
    522           * @return  none
    523           */

   \                                 In  segment BANKED_CODE, align 1, keep-with-next
   \                     ?Subroutine0:
   \   000000   12....       LCALL   ?DEALLOC_XSTACK8
   \   000003                REQUIRE ??Subroutine2_0
   \   000003                ; // Fall through to label ??Subroutine2_0

   \                                 In  segment BANKED_CODE, align 1, keep-with-next
    524          void SampleApp_SendPeriodicMessage( void )
   \                     SampleApp_SendPeriodicMessage:
    525          {
   \   000000   74F6         MOV     A,#-0xa
   \   000002   12....       LCALL   ?BANKED_ENTER_XDATA
   \   000005                ; Saved register size: 10
   \   000005                ; Auto size: 10
   \   000005   74F6         MOV     A,#-0xa
   \   000007   12....       LCALL   ?ALLOC_XSTACK8
    526            uint8 data[10]={'0','1','2','3','4','5','6','7','8','9'};//自定义数据
   \   00000A   85..82       MOV     DPL,?XSP + 0
   \   00000D   85..83       MOV     DPH,?XSP + 1
   \   000010   AC82         MOV     R4,DPL
   \   000012   AD83         MOV     R5,DPH
   \   000014   7583..       MOV     DPH,#(`?<Constant {48, 49, 50, 51, 52, 53, 54, 55, 56` >> 8) & 0xff
   \   000017   7582..       MOV     DPL,#`?<Constant {48, 49, 50, 51, 52, 53, 54, 55, 56` & 0xff
   \   00001A   740A         MOV     A,#0xa
   \   00001C   12....       LCALL   ?MOVE_LONG8_XDATA_XDATA
    527            if ( AF_DataRequest( &SampleApp_Periodic_DstAddr, &SampleApp_epDesc,
    528                                 SAMPLEAPP_PERIODIC_CLUSTERID,
    529                                 10,//字节数
    530                                 data,//指针头
    531                                 &SampleApp_TransID,
    532                                 AF_DISCV_ROUTE,
    533                                 AF_DEFAULT_RADIUS ) == afStatus_SUCCESS )
   \   00001F                ; Setup parameters for call to function AF_DataRequest
   \   00001F   75..1E       MOV     ?V0 + 0,#0x1e
   \   000022   78..         MOV     R0,#?V0 + 0
   \   000024   12....       LCALL   ?PUSH_XSTACK_I_ONE
   \   000027   75....       MOV     ?V0 + 0,#SampleApp_TransID & 0xff
   \   00002A   75....       MOV     ?V0 + 1,#(SampleApp_TransID >> 8) & 0xff
   \   00002D   78..         MOV     R0,#?V0 + 0
   \   00002F   12....       LCALL   ?PUSH_XSTACK_I_TWO
   \   000032   7403         MOV     A,#0x3
   \   000034   12....       LCALL   ?XSTACK_DISP0_8
   \   000037   8582..       MOV     ?V0 + 0,DPL
   \   00003A   8583..       MOV     ?V0 + 1,DPH
   \   00003D   78..         MOV     R0,#?V0 + 0
   \   00003F   12....       LCALL   ?PUSH_XSTACK_I_TWO
   \   000042   75..0A       MOV     ?V0 + 0,#0xa
   \   000045   75..00       MOV     ?V0 + 1,#0x0
   \   000048   78..         MOV     R0,#?V0 + 0
   \   00004A   12....       LCALL   ?PUSH_XSTACK_I_TWO
   \   00004D   75..01       MOV     ?V0 + 0,#0x1
   \   000050   78..         MOV     R0,#?V0 + 0
   \   000052   12....       LCALL   ?PUSH_XSTACK_I_TWO
   \   000055   7920         MOV     R1,#0x20
   \   000057   7C..         MOV     R4,#SampleApp_epDesc & 0xff
   \   000059   7D..         MOV     R5,#(SampleApp_epDesc >> 8) & 0xff
   \   00005B   7A..         MOV     R2,#SampleApp_Periodic_DstAddr & 0xff
   \   00005D   7B..         MOV     R3,#(SampleApp_Periodic_DstAddr >> 8) & 0xff
   \   00005F   12....       LCALL   ??AF_DataRequest?relay
   \   000062   7409         MOV     A,#0x9
   \   000064   12....       LCALL   ?DEALLOC_XSTACK8
    534            {
    535            }
    536            else
    537            {
    538              // Error occurred in request to send.
    539            }
    540          }
   \   000067   740A         MOV     A,#0xa
   \   000069   02....       LJMP    ?Subroutine0 & 0xFFFF
    541          
    542          /*********************************************************************
    543           * @fn      SampleApp_SendFlashMessage
    544           *
    545           * @brief   Send the flash message to group 1.
    546           *
    547           * @param   flashTime - in milliseconds
    548           *
    549           * @return  none
    550           */

   \                                 In  segment BANKED_CODE, align 1, keep-with-next
    551          void SampleApp_SendFlashMessage( uint16 flashTime )
   \                     SampleApp_SendFlashMessage:
    552          {
   \   000000   74F6         MOV     A,#-0xa
   \   000002   12....       LCALL   ?BANKED_ENTER_XDATA
   \   000005                ; Saved register size: 10
   \   000005                ; Auto size: 3
   \   000005   74FD         MOV     A,#-0x3
   \   000007   12....       LCALL   ?ALLOC_XSTACK8
    553            uint8 buffer[3];
    554            buffer[0] = (uint8)(SampleAppFlashCounter++);
   \   00000A   90....       MOV     DPTR,#SampleAppFlashCounter
   \   00000D   E0           MOVX    A,@DPTR
   \   00000E   85..82       MOV     DPL,?XSP + 0
   \   000011   85..83       MOV     DPH,?XSP + 1
   \   000014   F0           MOVX    @DPTR,A
   \   000015   90....       MOV     DPTR,#SampleAppFlashCounter
   \   000018   E0           MOVX    A,@DPTR
   \   000019   04           INC     A
   \   00001A   F0           MOVX    @DPTR,A
    555            buffer[1] = LO_UINT16( flashTime );
   \   00001B   7401         MOV     A,#0x1
   \   00001D   12....       LCALL   ?XSTACK_DISP0_8
   \   000020   EA           MOV     A,R2
   \   000021   F0           MOVX    @DPTR,A
    556            buffer[2] = HI_UINT16( flashTime );
   \   000022   7402         MOV     A,#0x2
   \   000024   12....       LCALL   ?XSTACK_DISP0_8
   \   000027   EB           MOV     A,R3
   \   000028   F0           MOVX    @DPTR,A
    557          
    558            if ( AF_DataRequest( &SampleApp_Flash_DstAddr, &SampleApp_epDesc,
    559                                 SAMPLEAPP_FLASH_CLUSTERID,
    560                                 3,
    561                                 buffer,
    562                                 &SampleApp_TransID,
    563                                 AF_DISCV_ROUTE,
    564                                 AF_DEFAULT_RADIUS ) == afStatus_SUCCESS )
   \   000029                ; Setup parameters for call to function AF_DataRequest
   \   000029   75..1E       MOV     ?V0 + 0,#0x1e
   \   00002C   78..         MOV     R0,#?V0 + 0
   \   00002E   12....       LCALL   ?PUSH_XSTACK_I_ONE
   \   000031   75....       MOV     ?V0 + 0,#SampleApp_TransID & 0xff
   \   000034   75....       MOV     ?V0 + 1,#(SampleApp_TransID >> 8) & 0xff
   \   000037   78..         MOV     R0,#?V0 + 0
   \   000039   12....       LCALL   ?PUSH_XSTACK_I_TWO
   \   00003C   7403         MOV     A,#0x3
   \   00003E   12....       LCALL   ?XSTACK_DISP0_8
   \   000041   8582..       MOV     ?V0 + 0,DPL
   \   000044   8583..       MOV     ?V0 + 1,DPH
   \   000047   78..         MOV     R0,#?V0 + 0
   \   000049   12....       LCALL   ?PUSH_XSTACK_I_TWO
   \   00004C   75..03       MOV     ?V0 + 0,#0x3
   \   00004F   75..00       MOV     ?V0 + 1,#0x0
   \   000052   78..         MOV     R0,#?V0 + 0
   \   000054   12....       LCALL   ?PUSH_XSTACK_I_TWO
   \   000057   75..02       MOV     ?V0 + 0,#0x2
   \   00005A   78..         MOV     R0,#?V0 + 0
   \   00005C   12....       LCALL   ?PUSH_XSTACK_I_TWO
   \   00005F   7920         MOV     R1,#0x20
   \   000061   7C..         MOV     R4,#SampleApp_epDesc & 0xff
   \   000063   7D..         MOV     R5,#(SampleApp_epDesc >> 8) & 0xff
   \   000065   7A..         MOV     R2,#SampleApp_Flash_DstAddr & 0xff
   \   000067   7B..         MOV     R3,#(SampleApp_Flash_DstAddr >> 8) & 0xff
   \   000069   12....       LCALL   ??AF_DataRequest?relay
   \   00006C   7409         MOV     A,#0x9
   \   00006E   12....       LCALL   ?DEALLOC_XSTACK8
    565            {
    566            }
    567            else
    568            {
    569              // Error occurred in request to send.
    570            }
    571          }
   \   000071   7403         MOV     A,#0x3
   \   000073   02....       LJMP    ?Subroutine0 & 0xFFFF
    572          
    573          /*********************************************************************
    574          *********************************************************************/

   \                                 In  segment BANKED_CODE, align 1, keep-with-next
    575          void SampleApp_SendPointToPointMessage( void )
   \                     SampleApp_SendPointToPointMessage:
    576          {
   \   000000   C082         PUSH    DPL
   \   000002   C083         PUSH    DPH
   \   000004                ; Saved register size: 2
   \   000004                ; Auto size: 0
    577            if(LIGHT==1)
   \   000004   A2A0         MOV     C,0xa0.0
   \   000006   500A         JNC     ??SampleApp_SendPointToPointMessage_0
    578            { 
    579              HalUARTWrite(0,"no light\n",9);     //串口
   \   000008                ; Setup parameters for call to function HalUARTWrite
   \   000008   7C09         MOV     R4,#0x9
   \   00000A   7D00         MOV     R5,#0x0
   \   00000C   7A..         MOV     R2,#`?<Constant "no light\\n">` & 0xff
   \   00000E   7B..         MOV     R3,#(`?<Constant "no light\\n">` >> 8) & 0xff
   \   000010   8008         SJMP    ??SampleApp_SendPointToPointMessage_1
    580            }  
    581            else 
    582            {
    583              HalUARTWrite(0,"got Light\n",10);       //串口  
   \                     ??SampleApp_SendPointToPointMessage_0:
   \   000012                ; Setup parameters for call to function HalUARTWrite
   \   000012   7C0A         MOV     R4,#0xa
   \   000014   7D00         MOV     R5,#0x0
   \   000016   7A..         MOV     R2,#`?<Constant "got Light\\n">` & 0xff
   \   000018   7B..         MOV     R3,#(`?<Constant "got Light\\n">` >> 8) & 0xff
   \                     ??SampleApp_SendPointToPointMessage_1:
   \   00001A   7900         MOV     R1,#0x0
   \   00001C   12....       LCALL   ??HalUARTWrite?relay
    584            }
    585          }
   \   00001F   D083         POP     DPH
   \   000021   D082         POP     DPL
   \   000023   02....       LJMP    ?BRET
   \   000026                REQUIRE _A_P2

   \                                 In  segment BANK_RELAYS, align 1
   \                     ??SampleApp_Init?relay:
   \   000000   12....       LCALL   ?BDISPATCH
   \   000003   ......       DC24    SampleApp_Init

   \                                 In  segment BANK_RELAYS, align 1
   \                     ??SampleApp_ProcessEvent?relay:
   \   000000   12....       LCALL   ?BDISPATCH
   \   000003   ......       DC24    SampleApp_ProcessEvent

   \                                 In  segment BANK_RELAYS, align 1
   \                     ??SampleApp_HandleKeys?relay:
   \   000000   12....       LCALL   ?BDISPATCH
   \   000003   ......       DC24    SampleApp_HandleKeys

   \                                 In  segment BANK_RELAYS, align 1
   \                     ??SampleApp_MessageMSGCB?relay:
   \   000000   12....       LCALL   ?BDISPATCH
   \   000003   ......       DC24    SampleApp_MessageMSGCB

   \                                 In  segment BANK_RELAYS, align 1
   \                     ??SampleApp_SendPeriodicMessage?relay:
   \   000000   12....       LCALL   ?BDISPATCH
   \   000003   ......       DC24    SampleApp_SendPeriodicMessage

   \                                 In  segment BANK_RELAYS, align 1
   \                     ??SampleApp_SendFlashMessage?relay:
   \   000000   12....       LCALL   ?BDISPATCH
   \   000003   ......       DC24    SampleApp_SendFlashMessage

   \                                 In  segment BANK_RELAYS, align 1
   \                     ??SampleApp_SendPointToPointMessage?relay:
   \   000000   12....       LCALL   ?BDISPATCH
   \   000003   ......       DC24    SampleApp_SendPointToPointMessage

   \                                 In  segment XDATA_ROM_C, align 1
   \                     `?<Constant "Hello World\\n">`:
   \   000000   48656C6C     DB "Hello World\012"
   \            6F20576F
   \            726C640A
   \            00      

   \                                 In  segment XDATA_ROM_C, align 1
   \                     `?<Constant "Group 1">`:
   \   000000   47726F75     DB "Group 1"
   \            70203100

   \                                 In  segment XDATA_ROM_C, align 1
   \                     `?<Constant "SampleApp">`:
   \   000000   53616D70     DB "SampleApp"
   \            6C654170
   \            7000    

   \                                 In  segment XDATA_ROM_C, align 1
   \                     `?<Constant "temp=">`:
   \   000000   74656D70     DB "temp="
   \            3D00    

   \                                 In  segment XDATA_ROM_C, align 1
   \                     `?<Constant "\\n\\r">`:
   \   000000   0A0D00       DB "\012\015"

   \                                 In  segment XDATA_ROM_C, align 1
   \                     `?<Constant "humidity=">`:
   \   000000   68756D69     DB "humidity="
   \            64697479
   \            3D00    

   \                                 In  segment XDATA_ROM_C, align 1
   \                     `?<Constant "Temp: humidity:">`:
   \   000000   54656D70     DB "Temp: humidity:"
   \            3A206875
   \            6D696469
   \            74793A00

   \                                 In  segment XDATA_ROM_C, align 1
   \                     `?<Constant "$">`:
   \   000000   2400         DB "$"

   \                                 In  segment XDATA_ROM_C, align 1
   \                     `?<Constant "0">`:
   \   000000   3000         DB "0"

   \                                 In  segment XDATA_ROM_C, align 1
   \                     `?<Constant "1">`:
   \   000000   3100         DB "1"

   \                                 In  segment XDATA_ROM_C, align 1
   \                     `?<Constant "#">`:
   \   000000   2300         DB "#"

   \                                 In  segment XDATA_ROM_C, align 1
   \                     `?<Constant {48, 49, 50, 51, 52, 53, 54, 55, 56`:
   \   000000   30           DB 48
   \   000001   31           DB 49
   \   000002   32           DB 50
   \   000003   33           DB 51
   \   000004   34           DB 52
   \   000005   35           DB 53
   \   000006   36           DB 54
   \   000007   37           DB 55
   \   000008   38           DB 56
   \   000009   39           DB 57

   \                                 In  segment XDATA_ROM_C, align 1
   \                     `?<Constant "no light\\n">`:
   \   000000   6E6F206C     DB "no light\012"
   \            69676874
   \            0A00    

   \                                 In  segment XDATA_ROM_C, align 1
   \                     `?<Constant "got Light\\n">`:
   \   000000   676F7420     DB "got Light\012"
   \            4C696768
   \            740A00  

   Maximum stack usage in bytes:

     Function                       ISTACK PSTACK XSTACK
     --------                       ------ ------ ------
     SampleApp_HandleKeys               0      0     30
       -> SampleApp_SendFlashMessage
                                        0      0     20
       -> aps_FindGroup                 0      0     20
       -> aps_RemoveGroup               0      0     20
       -> aps_AddGroup                  0      0     20
     SampleApp_Init                     0      0     14
       -> MT_UartInit                   0      0     22
       -> MT_UartRegisterTaskID         0      0     22
       -> HalUARTWrite                  0      0     22
       -> afRegister                    0      0     22
       -> RegisterForKeys               0      0     22
       -> osal_memcpy                   0      0     28
       -> aps_AddGroup                  0      0     22
       -> HalLcdWriteString             0      0     22
     SampleApp_MessageMSGCB             0      0     30
       -> HalUARTWrite                  0      0     20
       -> HalUARTWrite                  0      0     20
       -> HalUARTWrite                  0      0     20
       -> HalUARTWrite                  0      0     20
       -> HalUARTWrite                  0      0     20
       -> HalUARTWrite                  0      0     20
       -> HalLedBlink                   0      0     20
     SampleApp_ProcessEvent             1      0     20
       -> osal_msg_receive              0      0     40
       -> osal_start_timerEx            0      0     40
       -> osal_msg_deallocate           0      0     40
       -> osal_msg_receive              0      0     40
       -> SampleApp_HandleKeys          0      0     40
       -> SampleApp_MessageMSGCB        0      0     40
       -> DHT11                         0      0     40
       -> HalUARTWrite                  0      0     40
       -> HalUARTWrite                  0      0     40
       -> HalUARTWrite                  0      0     40
       -> HalUARTWrite                  0      0     40
       -> HalUARTWrite                  0      0     40
       -> HalUARTWrite                  0      0     40
       -> HalLcdWriteString             0      0     40
       -> HalLcdWriteString             0      0     40
       -> SampleApp_SendPointToPointMessage
                                        0      0     40
       -> osal_rand                     0      0     40
       -> osal_start_timerEx            0      0     40
     SampleApp_SendFlashMessage         1      0     32
       -> AF_DataRequest                0      0     44
     SampleApp_SendPeriodicMessage      2      0     29
       -> AF_DataRequest                0      0     58
     SampleApp_SendPointToPointMessage
                                        2      0     20
       -> HalUARTWrite                  4      0      0
       -> HalUARTWrite                  4      0      0


   Segment part sizes:

     Function/Label                                 Bytes
     --------------                                 -----
     P0INP                                             1
     _A_P1                                             1
     _A_P2                                             1
     P0SEL                                             1
     P2SEL                                             1
     P1INP                                             1
     P2INP                                             1
     P0DIR                                             1
     P1DIR                                             1
     P2DIR                                             1
     SampleApp_ClusterList                             6
     SampleApp_SimpleDesc                             12
     SampleApp_epDesc                                  6
     SampleApp_TaskID                                  1
     SampleApp_NwkState                                1
     SampleApp_TransID                                 1
     SampleApp_Periodic_DstAddr                       12
     SampleApp_Flash_DstAddr                          12
     Point_To_Point_DstAddr                           12
     SampleApp_Group                                  18
     SampleAppPeriodicCounter                          1
     SampleAppFlashCounter                             1
     SampleApp_Init                                  225
     SampleApp_ProcessEvent                          388
     ?Subroutine1                                     10
     SampleApp_HandleKeys                             61
     ??Subroutine2_0                                   5
     SampleApp_MessageMSGCB                          207
     ?Subroutine0                                      3
     SampleApp_SendPeriodicMessage                   108
     SampleApp_SendFlashMessage                      118
     SampleApp_SendPointToPointMessage
                                                      38
     ??SampleApp_Init?relay                            6
     ??SampleApp_ProcessEvent?relay                    6
     ??SampleApp_HandleKeys?relay                      6
     ??SampleApp_MessageMSGCB?relay                    6
     ??SampleApp_SendPeriodicMessage?relay             6
     ??SampleApp_SendFlashMessage?relay                6
     ??SampleApp_SendPointToPointMessage?relay         6
     ?<Constant "Hello World\n">                      13
     ?<Constant "Group 1">                             8
     ?<Constant "SampleApp">                          10
     ?<Constant "temp=">                               6
     ?<Constant "\n\r">                                3
     ?<Constant "humidity=">                          10
     ?<Constant "Temp: humidity:">                    16
     ?<Constant "$">                                   2
     ?<Constant "0">                                   2
     ?<Constant "1">                                   2
     ?<Constant "#">                                   2
     ?<Constant {48, 49, 50, 51, 52, 53, 54, 55, 56   10
     ?<Constant "no light\n">                         10
     ?<Constant "got Light\n">                        11

 
 1 163 bytes in segment BANKED_CODE
    42 bytes in segment BANK_RELAYS
    10 bytes in segment SFR_AN
   123 bytes in segment XDATA_ROM_C
    65 bytes in segment XDATA_Z
 
 1 205 bytes of CODE  memory
   123 bytes of CONST memory
     0 bytes of DATA  memory (+ 10 bytes shared)
    65 bytes of XDATA memory

Errors: none
Warnings: 1
